; Function Attrs: mustprogress uwtable
define noundef double @_ZNK8QuantLib24FdmHestonHullWhiteSolver7gammaAtEdddd(ptr noundef nonnull align 8 dereferenceable(192) %this, double noundef %s, double noundef %v, double noundef %r, double noundef %eps) local_unnamed_addr #10 align 2 {
entry:
  %add = fadd double %s, %eps
  %vtable.i = load ptr, ptr %this, align 8, !tbaa !33
  %vfn.i = getelementptr inbounds i8, ptr %vtable.i, i64 24
  %0 = load ptr, ptr %vfn.i, align 8
  tail call void %0(ptr noundef nonnull align 8 dereferenceable(12) %this)
  %call.i = tail call double @log(double noundef %add) #27, !tbaa !118
  %solver_.i = getelementptr inbounds nuw i8, ptr %this, i64 176
  %1 = load ptr, ptr %solver_.i, align 8, !tbaa !101
  %cmp.not.i.i = icmp eq ptr %1, null
  br i1 %cmp.not.i.i, label %cond.false.i.i, label %_ZNK8QuantLib24FdmHestonHullWhiteSolver7valueAtEddd.exit, !prof !69

cond.false.i.i:                                   ; preds = %entry
  tail call void @_ZN5boost16assertion_failedEPKcS1_S1_l(ptr noundef nonnull @.str.8, ptr noundef nonnull @__PRETTY_FUNCTION__._ZNK5boost10shared_ptrIN8QuantLib13Fdm3DimSolverEEptEv, ptr noundef nonnull @.str.9, i64 noundef 784)
  %.pre.i.i = load ptr, ptr %solver_.i, align 8, !tbaa !101
  br label %_ZNK8QuantLib24FdmHestonHullWhiteSolver7valueAtEddd.exit

_ZNK8QuantLib24FdmHestonHullWhiteSolver7valueAtEddd.exit: ; preds = %entry, %cond.false.i.i
  %2 = phi ptr [ %1, %entry ], [ %.pre.i.i, %cond.false.i.i ]
  %call3.i = tail call noundef double @_ZNK8QuantLib13Fdm3DimSolver13interpolateAtEddd(ptr noundef nonnull align 8 dereferenceable(328) %2, double noundef %call.i, double noundef %v, double noundef %r)
  %sub = fsub double %s, %eps
  %vtable.i10 = load ptr, ptr %this, align 8, !tbaa !33
  %vfn.i11 = getelementptr inbounds i8, ptr %vtable.i10, i64 24
  %3 = load ptr, ptr %vfn.i11, align 8
  tail call void %3(ptr noundef nonnull align 8 dereferenceable(12) %this)
  %call.i12 = tail call double @log(double noundef %sub) #27, !tbaa !118
  %4 = load ptr, ptr %solver_.i, align 8, !tbaa !101
  %cmp.not.i.i14 = icmp eq ptr %4, null
  br i1 %cmp.not.i.i14, label %cond.false.i.i16, label %_ZNK8QuantLib24FdmHestonHullWhiteSolver7valueAtEddd.exit18, !prof !69

cond.false.i.i16:                                 ; preds = %_ZNK8QuantLib24FdmHestonHullWhiteSolver7valueAtEddd.exit
  tail call void @_ZN5boost16assertion_failedEPKcS1_S1_l(ptr noundef nonnull @.str.8, ptr noundef nonnull @__PRETTY_FUNCTION__._ZNK5boost10shared_ptrIN8QuantLib13Fdm3DimSolverEEptEv, ptr noundef nonnull @.str.9, i64 noundef 784)
  %.pre.i.i17 = load ptr, ptr %solver_.i, align 8, !tbaa !101
  br label %_ZNK8QuantLib24FdmHestonHullWhiteSolver7valueAtEddd.exit18

_ZNK8QuantLib24FdmHestonHullWhiteSolver7valueAtEddd.exit18: ; preds = %_ZNK8QuantLib24FdmHestonHullWhiteSolver7valueAtEddd.exit, %cond.false.i.i16
  %5 = phi ptr [ %4, %_ZNK8QuantLib24FdmHestonHullWhiteSolver7valueAtEddd.exit ], [ %.pre.i.i17, %cond.false.i.i16 ]
  %call3.i15 = tail call noundef double @_ZNK8QuantLib13Fdm3DimSolver13interpolateAtEddd(ptr noundef nonnull align 8 dereferenceable(328) %5, double noundef %call.i12, double noundef %v, double noundef %r)
  %vtable.i19 = load ptr, ptr %this, align 8, !tbaa !33
  %vfn.i20 = getelementptr inbounds i8, ptr %vtable.i19, i64 24
  %6 = load ptr, ptr %vfn.i20, align 8
  tail call void %6(ptr noundef nonnull align 8 dereferenceable(12) %this)
  %call.i21 = tail call double @log(double noundef %s) #27, !tbaa !118
  %7 = load ptr, ptr %solver_.i, align 8, !tbaa !101
  %cmp.not.i.i23 = icmp eq ptr %7, null
  br i1 %cmp.not.i.i23, label %cond.false.i.i25, label %_ZNK8QuantLib24FdmHestonHullWhiteSolver7valueAtEddd.exit27, !prof !69

cond.false.i.i25:                                 ; preds = %_ZNK8QuantLib24FdmHestonHullWhiteSolver7valueAtEddd.exit18
  tail call void @_ZN5boost16assertion_failedEPKcS1_S1_l(ptr noundef nonnull @.str.8, ptr noundef nonnull @__PRETTY_FUNCTION__._ZNK5boost10shared_ptrIN8QuantLib13Fdm3DimSolverEEptEv, ptr noundef nonnull @.str.9, i64 noundef 784)
  %.pre.i.i26 = load ptr, ptr %solver_.i, align 8, !tbaa !101
  br label %_ZNK8QuantLib24FdmHestonHullWhiteSolver7valueAtEddd.exit27

_ZNK8QuantLib24FdmHestonHullWhiteSolver7valueAtEddd.exit27: ; preds = %_ZNK8QuantLib24FdmHestonHullWhiteSolver7valueAtEddd.exit18, %cond.false.i.i25
  %8 = phi ptr [ %7, %_ZNK8QuantLib24FdmHestonHullWhiteSolver7valueAtEddd.exit18 ], [ %.pre.i.i26, %cond.false.i.i25 ]
  %add3 = fadd double %call3.i, %call3.i15
  %call3.i24 = tail call noundef double @_ZNK8QuantLib13Fdm3DimSolver13interpolateAtEddd(ptr noundef nonnull align 8 dereferenceable(328) %8, double noundef %call.i21, double noundef %v, double noundef %r)
  %9 = tail call double @llvm.fmuladd.f64(double %call3.i24, double -2.000000e+00, double %add3)
  %mul = fmul double %eps, %eps
  %div = fdiv double %9, %mul
  ret double %div
}